; ModuleID = '29/1073.c'
source_filename = "29/1073.c"
target datalayout = "e-m:e-p270:32:32-p271:32:32-p272:64:64-i64:64-f80:128-n8:16:32:64-S128"
target triple = "x86_64-pc-linux-gnu"

@.str = private unnamed_addr constant [3 x i8] c"%d\00", align 1
@.str.1 = private unnamed_addr constant [7 x i8] c"%.3lf\0A\00", align 1

; Function Attrs: noinline nounwind uwtable
define dso_local i32 @main() #0 {
  %1 = alloca i32, align 4
  %2 = alloca i32, align 4
  %3 = alloca i32, align 4
  %4 = alloca i32, align 4
  %5 = alloca i32, align 4
  %6 = alloca i32*, align 8
  %7 = alloca i32*, align 8
  %8 = alloca double*, align 8
  store i32 0, i32* %1, align 4
  %9 = call i32 (i8*, ...) @__isoc99_scanf(i8* getelementptr inbounds ([3 x i8], [3 x i8]* @.str, i64 0, i64 0), i32* %2)
  %10 = load i32, i32* %2, align 4
  %11 = sext i32 %10 to i64
  %12 = mul i64 4, %11
  %13 = call noalias i8* @malloc(i64 %12) #3
  %14 = bitcast i8* %13 to i32*
  store i32* %14, i32** %6, align 8
  store i32 0, i32* %3, align 4
  br label %15

15:                                               ; preds = %25, %0
  %16 = load i32, i32* %3, align 4
  %17 = load i32, i32* %2, align 4
  %18 = icmp slt i32 %16, %17
  br i1 %18, label %19, label %28

19:                                               ; preds = %15
  %20 = load i32*, i32** %6, align 8
  %21 = load i32, i32* %3, align 4
  %22 = sext i32 %21 to i64
  %23 = getelementptr inbounds i32, i32* %20, i64 %22
  %24 = call i32 (i8*, ...) @__isoc99_scanf(i8* getelementptr inbounds ([3 x i8], [3 x i8]* @.str, i64 0, i64 0), i32* %23)
  br label %25

25:                                               ; preds = %19
  %26 = load i32, i32* %3, align 4
  %27 = add nsw i32 %26, 1
  store i32 %27, i32* %3, align 4
  br label %15

28:                                               ; preds = %15
  store i32 0, i32* %5, align 4
  store i32 0, i32* %3, align 4
  br label %29

29:                                               ; preds = %48, %28
  %30 = load i32, i32* %3, align 4
  %31 = load i32, i32* %2, align 4
  %32 = icmp slt i32 %30, %31
  br i1 %32, label %33, label %51

33:                                               ; preds = %29
  %34 = load i32*, i32** %6, align 8
  %35 = load i32, i32* %3, align 4
  %36 = sext i32 %35 to i64
  %37 = getelementptr inbounds i32, i32* %34, i64 %36
  %38 = load i32, i32* %37, align 4
  %39 = load i32, i32* %5, align 4
  %40 = icmp sgt i32 %38, %39
  br i1 %40, label %41, label %47

41:                                               ; preds = %33
  %42 = load i32*, i32** %6, align 8
  %43 = load i32, i32* %3, align 4
  %44 = sext i32 %43 to i64
  %45 = getelementptr inbounds i32, i32* %42, i64 %44
  %46 = load i32, i32* %45, align 4
  store i32 %46, i32* %5, align 4
  br label %47

47:                                               ; preds = %41, %33
  br label %48

48:                                               ; preds = %47
  %49 = load i32, i32* %3, align 4
  %50 = add nsw i32 %49, 1
  store i32 %50, i32* %3, align 4
  br label %29

51:                                               ; preds = %29
  %52 = load i32, i32* %5, align 4
  %53 = add nsw i32 %52, 1
  %54 = sext i32 %53 to i64
  %55 = mul i64 4, %54
  %56 = call noalias i8* @malloc(i64 %55) #3
  %57 = bitcast i8* %56 to i32*
  store i32* %57, i32** %7, align 8
  %58 = load i32*, i32** %7, align 8
  %59 = getelementptr inbounds i32, i32* %58, i64 0
  store i32 1, i32* %59, align 4
  %60 = load i32*, i32** %7, align 8
  %61 = getelementptr inbounds i32, i32* %60, i64 1
  store i32 2, i32* %61, align 4
  store i32 2, i32* %3, align 4
  br label %62

62:                                               ; preds = %84, %51
  %63 = load i32, i32* %3, align 4
  %64 = load i32, i32* %5, align 4
  %65 = icmp sle i32 %63, %64
  br i1 %65, label %66, label %87

66:                                               ; preds = %62
  %67 = load i32*, i32** %7, align 8
  %68 = load i32, i32* %3, align 4
  %69 = sub nsw i32 %68, 1
  %70 = sext i32 %69 to i64
  %71 = getelementptr inbounds i32, i32* %67, i64 %70
  %72 = load i32, i32* %71, align 4
  %73 = load i32*, i32** %7, align 8
  %74 = load i32, i32* %3, align 4
  %75 = sub nsw i32 %74, 2
  %76 = sext i32 %75 to i64
  %77 = getelementptr inbounds i32, i32* %73, i64 %76
  %78 = load i32, i32* %77, align 4
  %79 = add nsw i32 %72, %78
  %80 = load i32*, i32** %7, align 8
  %81 = load i32, i32* %3, align 4
  %82 = sext i32 %81 to i64
  %83 = getelementptr inbounds i32, i32* %80, i64 %82
  store i32 %79, i32* %83, align 4
  br label %84

84:                                               ; preds = %66
  %85 = load i32, i32* %3, align 4
  %86 = add nsw i32 %85, 1
  store i32 %86, i32* %3, align 4
  br label %62

87:                                               ; preds = %62
  %88 = load i32, i32* %2, align 4
  %89 = sext i32 %88 to i64
  %90 = mul i64 8, %89
  %91 = call noalias i8* @malloc(i64 %90) #3
  %92 = bitcast i8* %91 to double*
  store double* %92, double** %8, align 8
  store i32 0, i32* %3, align 4
  br label %93

93:                                               ; preds = %102, %87
  %94 = load i32, i32* %3, align 4
  %95 = load i32, i32* %2, align 4
  %96 = icmp slt i32 %94, %95
  br i1 %96, label %97, label %105

97:                                               ; preds = %93
  %98 = load double*, double** %8, align 8
  %99 = load i32, i32* %3, align 4
  %100 = sext i32 %99 to i64
  %101 = getelementptr inbounds double, double* %98, i64 %100
  store double 0.000000e+00, double* %101, align 8
  br label %102

102:                                              ; preds = %97
  %103 = load i32, i32* %3, align 4
  %104 = add nsw i32 %103, 1
  store i32 %104, i32* %3, align 4
  br label %93

105:                                              ; preds = %93
  store i32 0, i32* %3, align 4
  br label %106

106:                                              ; preds = %145, %105
  %107 = load i32, i32* %3, align 4
  %108 = load i32, i32* %2, align 4
  %109 = icmp slt i32 %107, %108
  br i1 %109, label %110, label %148

110:                                              ; preds = %106
  store i32 0, i32* %4, align 4
  br label %111

111:                                              ; preds = %141, %110
  %112 = load i32, i32* %4, align 4
  %113 = load i32*, i32** %6, align 8
  %114 = load i32, i32* %3, align 4
  %115 = sext i32 %114 to i64
  %116 = getelementptr inbounds i32, i32* %113, i64 %115
  %117 = load i32, i32* %116, align 4
  %118 = icmp slt i32 %112, %117
  br i1 %118, label %119, label %144

119:                                              ; preds = %111
  %120 = load i32*, i32** %7, align 8
  %121 = load i32, i32* %4, align 4
  %122 = add nsw i32 %121, 1
  %123 = sext i32 %122 to i64
  %124 = getelementptr inbounds i32, i32* %120, i64 %123
  %125 = load i32, i32* %124, align 4
  %126 = sitofp i32 %125 to double
  %127 = fmul double 1.000000e+00, %126
  %128 = load i32*, i32** %7, align 8
  %129 = load i32, i32* %4, align 4
  %130 = sext i32 %129 to i64
  %131 = getelementptr inbounds i32, i32* %128, i64 %130
  %132 = load i32, i32* %131, align 4
  %133 = sitofp i32 %132 to double
  %134 = fdiv double %127, %133
  %135 = load double*, double** %8, align 8
  %136 = load i32, i32* %3, align 4
  %137 = sext i32 %136 to i64
  %138 = getelementptr inbounds double, double* %135, i64 %137
  %139 = load double, double* %138, align 8
  %140 = fadd double %139, %134
  store double %140, double* %138, align 8
  br label %141

141:                                              ; preds = %119
  %142 = load i32, i32* %4, align 4
  %143 = add nsw i32 %142, 1
  store i32 %143, i32* %4, align 4
  br label %111

144:                                              ; preds = %111
  br label %145

145:                                              ; preds = %144
  %146 = load i32, i32* %3, align 4
  %147 = add nsw i32 %146, 1
  store i32 %147, i32* %3, align 4
  br label %106

148:                                              ; preds = %106
  store i32 0, i32* %3, align 4
  br label %149

149:                                              ; preds = %160, %148
  %150 = load i32, i32* %3, align 4
  %151 = load i32, i32* %2, align 4
  %152 = icmp slt i32 %150, %151
  br i1 %152, label %153, label %163

153:                                              ; preds = %149
  %154 = load double*, double** %8, align 8
  %155 = load i32, i32* %3, align 4
  %156 = sext i32 %155 to i64
  %157 = getelementptr inbounds double, double* %154, i64 %156
  %158 = load double, double* %157, align 8
  %159 = call i32 (i8*, ...) @printf(i8* getelementptr inbounds ([7 x i8], [7 x i8]* @.str.1, i64 0, i64 0), double %158)
  br label %160

160:                                              ; preds = %153
  %161 = load i32, i32* %3, align 4
  %162 = add nsw i32 %161, 1
  store i32 %162, i32* %3, align 4
  br label %149

163:                                              ; preds = %149
  %164 = load i32*, i32** %6, align 8
  %165 = bitcast i32* %164 to i8*
  call void @free(i8* %165) #3
  %166 = load i32*, i32** %7, align 8
  %167 = bitcast i32* %166 to i8*
  call void @free(i8* %167) #3
  %168 = load double*, double** %8, align 8
  %169 = bitcast double* %168 to i8*
  call void @free(i8* %169) #3
  ret i32 0
}

declare dso_local i32 @__isoc99_scanf(i8*, ...) #1

; Function Attrs: nounwind
declare dso_local noalias i8* @malloc(i64) #2

declare dso_local i32 @printf(i8*, ...) #1

; Function Attrs: nounwind
declare dso_local void @free(i8*) #2


!llvm.module.flags = !{!0}
!llvm.ident = !{!1}

!0 = !{i32 1, !"wchar_size", i32 4}
!1 = !{!"clang version 10.0.0-4ubuntu1 "}
